target datalayout = "e-m:e-p270:32:32-p271:32:32-p272:64:64-i64:64-i128:128-f80:128-n8:16:32:64-S128"
target triple = "x86_64-unknown-linux-gnu"

%"class.std::__cxx11::basic_string" = type { %"struct.std::__cxx11::basic_string<char>::_Alloc_hider", i64, %union.anon }
%"struct.std::__cxx11::basic_string<char>::_Alloc_hider" = type { ptr }
%union.anon = type { i64, [8 x i8] }
%"class.rocksdb::BlockCacheFile" = type { %"struct.rocksdb::LRUElement", %"class.rocksdb::port::RWMutex", ptr, %"class.std::__cxx11::basic_string", i32, %"class.std::__cxx11::list" }
%"struct.rocksdb::LRUElement" = type { ptr, ptr, ptr, %"struct.std::atomic" }
%"struct.std::atomic" = type { %"struct.std::__atomic_base" }
%"struct.std::__atomic_base" = type { i64 }
%"class.rocksdb::port::RWMutex" = type { %union.pthread_rwlock_t }
%union.pthread_rwlock_t = type { %struct.__pthread_rwlock_arch_t }
%struct.__pthread_rwlock_arch_t = type { i32, i32, i32, i32, i32, i32, i32, i32, i8, [7 x i8], i64, i32 }
%"class.std::__cxx11::list" = type { %"class.std::__cxx11::_List_base" }
%"class.std::__cxx11::_List_base" = type { %"struct.std::__cxx11::_List_base<rocksdb::BlockInfo *, std::allocator<rocksdb::BlockInfo *>>::_List_impl" }
%"struct.std::__cxx11::_List_base<rocksdb::BlockInfo *, std::allocator<rocksdb::BlockInfo *>>::_List_impl" = type { %"struct.std::__detail::_List_node_header" }
%"struct.std::__detail::_List_node_header" = type { %"struct.std::__detail::_List_node_base", i64 }
%"struct.std::__detail::_List_node_base" = type { ptr, ptr }
%"struct.std::_Vector_base.17" = type { %"struct.std::_Vector_base<rocksdb::CacheWriteBuffer *, std::allocator<rocksdb::CacheWriteBuffer *>>::_Vector_impl" }
%"struct.std::_Vector_base<rocksdb::CacheWriteBuffer *, std::allocator<rocksdb::CacheWriteBuffer *>>::_Vector_impl" = type { %"struct.std::_Vector_base<rocksdb::CacheWriteBuffer *, std::allocator<rocksdb::CacheWriteBuffer *>>::_Vector_impl_data" }
%"struct.std::_Vector_base<rocksdb::CacheWriteBuffer *, std::allocator<rocksdb::CacheWriteBuffer *>>::_Vector_impl_data" = type { ptr, ptr, ptr }
%"class.rocksdb::CacheWriteBuffer" = type { ptr, %"class.std::unique_ptr.21", i64, i64 }
%"class.std::unique_ptr.21" = type { %"struct.std::__uniq_ptr_data.22" }
%"struct.std::__uniq_ptr_data.22" = type { %"class.std::__uniq_ptr_impl.23" }
%"class.std::__uniq_ptr_impl.23" = type { %"class.std::tuple.24" }
%"class.std::tuple.24" = type { %"struct.std::_Tuple_impl.25" }
%"struct.std::_Tuple_impl.25" = type { %"struct.std::_Head_base.28" }
%"struct.std::_Head_base.28" = type { ptr }
%"class.std::__shared_count" = type { ptr }
%"class.rocksdb::RandomAccessCacheFile" = type { %"class.rocksdb::BlockCacheFile", %"class.std::unique_ptr.29", %"class.std::shared_ptr.37" }
%"class.std::unique_ptr.29" = type { %"struct.std::__uniq_ptr_data.30" }
%"struct.std::__uniq_ptr_data.30" = type { %"class.std::__uniq_ptr_impl.31" }
%"class.std::__uniq_ptr_impl.31" = type { %"class.std::tuple.32" }
%"class.std::tuple.32" = type { %"struct.std::_Tuple_impl.33" }
%"struct.std::_Tuple_impl.33" = type { %"struct.std::_Head_base.36" }
%"struct.std::_Head_base.36" = type { ptr }
%"class.std::shared_ptr.37" = type { %"class.std::__shared_ptr.38" }
%"class.std::__shared_ptr.38" = type { ptr, %"class.std::__shared_count" }
%"struct.rocksdb::LogicalBlockAddress" = type { i32, i32, i32 }
%"class.rocksdb::WriteableCacheFile" = type <{ %"class.rocksdb::RandomAccessCacheFile", ptr, ptr, %"class.std::unique_ptr.56", %"class.std::vector.16", i32, i32, i8, [3 x i8], i32, i64, i64, i64, i8, [7 x i8] }>
%"class.std::unique_ptr.56" = type { %"struct.std::__uniq_ptr_data.57" }
%"struct.std::__uniq_ptr_data.57" = type { %"class.std::__uniq_ptr_impl.58" }
%"class.std::__uniq_ptr_impl.58" = type { %"class.std::tuple.59" }
%"class.std::tuple.59" = type { %"struct.std::_Tuple_impl.60" }
%"struct.std::_Tuple_impl.60" = type { %"struct.std::_Head_base.63" }
%"struct.std::_Head_base.63" = type { ptr }
%"class.std::vector.16" = type { %"struct.std::_Vector_base.17" }
%"class.rocksdb::CacheWriteBufferAllocator" = type { ptr, %"class.rocksdb::port::Mutex", %"class.rocksdb::port::CondVar", i64, %"class.std::__cxx11::list.64" }
%"class.rocksdb::port::Mutex" = type { %union.pthread_mutex_t }
%union.pthread_mutex_t = type { %struct.__pthread_mutex_s }
%struct.__pthread_mutex_s = type { i32, i32, i32, i32, i32, i16, i16, %struct.__pthread_internal_list }
%struct.__pthread_internal_list = type { ptr, ptr }
%"class.rocksdb::port::CondVar" = type { %union.pthread_cond_t, ptr }
%union.pthread_cond_t = type { %struct.__pthread_cond_s }
%struct.__pthread_cond_s = type { %union.__atomic_wide_counter, %union.__atomic_wide_counter, [2 x i32], [2 x i32], i32, i32, [2 x i32] }
%union.__atomic_wide_counter = type { i64 }
%"class.std::__cxx11::list.64" = type { %"class.std::__cxx11::_List_base.65" }
%"class.std::__cxx11::_List_base.65" = type { %"struct.std::__cxx11::_List_base<rocksdb::CacheWriteBuffer *, std::allocator<rocksdb::CacheWriteBuffer *>>::_List_impl" }
%"struct.std::__cxx11::_List_base<rocksdb::CacheWriteBuffer *, std::allocator<rocksdb::CacheWriteBuffer *>>::_List_impl" = type { %"struct.std::__detail::_List_node_header" }

; Function Attrs: mustprogress nounwind uwtable
define linkonce_odr noundef nonnull align 8 dereferenceable(8) ptr @_ZNSt10_Head_baseILm0EPcLb0EE7_M_headERKS1_(ptr noundef nonnull align 8 dereferenceable(8) %__b) #2 comdat align 2 {
entry:
  %__b.addr = alloca ptr, align 8
  store ptr %__b, ptr %__b.addr, align 8
  %0 = load ptr, ptr %__b.addr, align 8
  %_M_head_impl = getelementptr inbounds %"struct.std::_Head_base.28", ptr %0, i32 0, i32 0
  ret ptr %_M_head_impl
}

; Function Attrs: mustprogress nounwind uwtable
define linkonce_odr noundef nonnull align 8 dereferenceable(8) ptr @_ZNSt11_Tuple_implILm0EJPcSt14default_deleteIA_cEEE7_M_headERKS4_(ptr noundef nonnull align 8 dereferenceable(8) %__t) #2 comdat align 2 {
entry:
  %__t.addr = alloca ptr, align 8
  store ptr %__t, ptr %__t.addr, align 8
  %0 = load ptr, ptr %__t.addr, align 8
  %call = call noundef nonnull align 8 dereferenceable(8) ptr @_ZNSt10_Head_baseILm0EPcLb0EE7_M_headERKS1_(ptr noundef nonnull align 8 dereferenceable(8) %0) #12
  ret ptr %call
}

; Function Attrs: mustprogress nounwind uwtable
define linkonce_odr noundef nonnull align 8 dereferenceable(8) ptr @_ZSt12__get_helperILm0EPcJSt14default_deleteIA_cEEERKT0_RKSt11_Tuple_implIXT_EJS4_DpT1_EE(ptr noundef nonnull align 8 dereferenceable(8) %__t) #2 comdat {
entry:
  %__t.addr = alloca ptr, align 8
  store ptr %__t, ptr %__t.addr, align 8
  %0 = load ptr, ptr %__t.addr, align 8
  %call = call noundef nonnull align 8 dereferenceable(8) ptr @_ZNSt11_Tuple_implILm0EJPcSt14default_deleteIA_cEEE7_M_headERKS4_(ptr noundef nonnull align 8 dereferenceable(8) %0) #12
  ret ptr %call
}

; Function Attrs: mustprogress nounwind uwtable
define linkonce_odr noundef nonnull align 8 dereferenceable(8) ptr @_ZSt3getILm0EJPcSt14default_deleteIA_cEEERKNSt13tuple_elementIXT_ESt5tupleIJDpT0_EEE4typeERKS8_(ptr noundef nonnull align 8 dereferenceable(8) %__t) #2 comdat {
entry:
  %__t.addr = alloca ptr, align 8
  store ptr %__t, ptr %__t.addr, align 8
  %0 = load ptr, ptr %__t.addr, align 8
  %call = call noundef nonnull align 8 dereferenceable(8) ptr @_ZSt12__get_helperILm0EPcJSt14default_deleteIA_cEEERKT0_RKSt11_Tuple_implIXT_EJS4_DpT1_EE(ptr noundef nonnull align 8 dereferenceable(8) %0) #12
  ret ptr %call
}

; Function Attrs: mustprogress nounwind uwtable
define linkonce_odr noundef ptr @_ZNKSt15__uniq_ptr_implIcSt14default_deleteIA_cEE6_M_ptrEv(ptr noundef nonnull align 8 dereferenceable(8) %this) #2 comdat align 2 {
entry:
  %this.addr = alloca ptr, align 8
  store ptr %this, ptr %this.addr, align 8
  %this1 = load ptr, ptr %this.addr, align 8
  %_M_t = getelementptr inbounds %"class.std::__uniq_ptr_impl.23", ptr %this1, i32 0, i32 0
  %call = call noundef nonnull align 8 dereferenceable(8) ptr @_ZSt3getILm0EJPcSt14default_deleteIA_cEEERKNSt13tuple_elementIXT_ESt5tupleIJDpT0_EEE4typeERKS8_(ptr noundef nonnull align 8 dereferenceable(8) %_M_t) #12
  %0 = load ptr, ptr %call, align 8
  ret ptr %0
}

; Function Attrs: mustprogress nounwind uwtable
define linkonce_odr noundef ptr @_ZNKSt10unique_ptrIA_cSt14default_deleteIS0_EE3getEv(ptr noundef nonnull align 8 dereferenceable(8) %this) #2 comdat align 2 {
entry:
  %this.addr = alloca ptr, align 8
  store ptr %this, ptr %this.addr, align 8
  %this1 = load ptr, ptr %this.addr, align 8
  %_M_t = getelementptr inbounds %"class.std::unique_ptr.21", ptr %this1, i32 0, i32 0
  %call = call noundef ptr @_ZNKSt15__uniq_ptr_implIcSt14default_deleteIA_cEE6_M_ptrEv(ptr noundef nonnull align 8 dereferenceable(8) %_M_t) #12
  ret ptr %call
}

; Function Attrs: mustprogress nounwind uwtable
define linkonce_odr noundef ptr @_ZNK7rocksdb16CacheWriteBuffer4DataEv(ptr noundef nonnull align 8 dereferenceable(32) %this) #2 comdat align 2 {
entry:
  %this.addr = alloca ptr, align 8
  store ptr %this, ptr %this.addr, align 8
  %this1 = load ptr, ptr %this.addr, align 8
  %buf_ = getelementptr inbounds %"class.rocksdb::CacheWriteBuffer", ptr %this1, i32 0, i32 1
  %call = call noundef ptr @_ZNKSt10unique_ptrIA_cSt14default_deleteIS0_EE3getEv(ptr noundef nonnull align 8 dereferenceable(8) %buf_) #12
  ret ptr %call
}

; Function Attrs: mustprogress nounwind uwtable
define linkonce_odr noundef i64 @_ZNK7rocksdb16CacheWriteBuffer4UsedEv(ptr noundef nonnull align 8 dereferenceable(32) %this) #2 comdat align 2 {
entry:
  %this.addr = alloca ptr, align 8
  store ptr %this, ptr %this.addr, align 8
  %this1 = load ptr, ptr %this.addr, align 8
  %pos_ = getelementptr inbounds %"class.rocksdb::CacheWriteBuffer", ptr %this1, i32 0, i32 3
  %0 = load i64, ptr %pos_, align 8
  ret i64 %0
}

; Function Attrs: mustprogress nounwind uwtable
define linkonce_odr noundef nonnull align 8 dereferenceable(8) ptr @_ZNSt6vectorIPN7rocksdb16CacheWriteBufferESaIS2_EEixEm(ptr noundef nonnull align 8 dereferenceable(24) %this, i64 noundef %__n) #2 comdat align 2 {
entry:
  %this.addr = alloca ptr, align 8
  %__n.addr = alloca i64, align 8
  store ptr %this, ptr %this.addr, align 8
  store i64 %__n, ptr %__n.addr, align 8
  %this1 = load ptr, ptr %this.addr, align 8
  %_M_impl = getelementptr inbounds %"struct.std::_Vector_base.17", ptr %this1, i32 0, i32 0
  %_M_start = getelementptr inbounds %"struct.std::_Vector_base<rocksdb::CacheWriteBuffer *, std::allocator<rocksdb::CacheWriteBuffer *>>::_Vector_impl_data", ptr %_M_impl, i32 0, i32 0
  %0 = load ptr, ptr %_M_start, align 8
  %1 = load i64, ptr %__n.addr, align 8
  %add.ptr = getelementptr inbounds ptr, ptr %0, i64 %1
  ret ptr %add.ptr
}

; Function Attrs: mustprogress nounwind uwtable
define linkonce_odr noundef i64 @_ZNKSt6vectorIPN7rocksdb16CacheWriteBufferESaIS2_EE4sizeEv(ptr noundef nonnull align 8 dereferenceable(24) %this) #2 comdat align 2 {
entry:
  %this.addr = alloca ptr, align 8
  store ptr %this, ptr %this.addr, align 8
  %this1 = load ptr, ptr %this.addr, align 8
  %_M_impl = getelementptr inbounds %"struct.std::_Vector_base.17", ptr %this1, i32 0, i32 0
  %_M_finish = getelementptr inbounds %"struct.std::_Vector_base<rocksdb::CacheWriteBuffer *, std::allocator<rocksdb::CacheWriteBuffer *>>::_Vector_impl_data", ptr %_M_impl, i32 0, i32 1
  %0 = load ptr, ptr %_M_finish, align 8
  %_M_impl2 = getelementptr inbounds %"struct.std::_Vector_base.17", ptr %this1, i32 0, i32 0
  %_M_start = getelementptr inbounds %"struct.std::_Vector_base<rocksdb::CacheWriteBuffer *, std::allocator<rocksdb::CacheWriteBuffer *>>::_Vector_impl_data", ptr %_M_impl2, i32 0, i32 0
  %1 = load ptr, ptr %_M_start, align 8
  %sub.ptr.lhs.cast = ptrtoint ptr %0 to i64
  %sub.ptr.rhs.cast = ptrtoint ptr %1 to i64
  %sub.ptr.sub = sub i64 %sub.ptr.lhs.cast, %sub.ptr.rhs.cast
  %sub.ptr.div = sdiv exact i64 %sub.ptr.sub, 8
  ret i64 %sub.ptr.div
}

; Function Attrs: mustprogress nounwind uwtable
define linkonce_odr noundef i64 @_ZNK7rocksdb25CacheWriteBufferAllocator10BufferSizeEv(ptr noundef nonnull align 8 dereferenceable(136) %this) #2 comdat align 2 {
entry:
  %this.addr = alloca ptr, align 8
  store ptr %this, ptr %this.addr, align 8
  %this1 = load ptr, ptr %this.addr, align 8
  %buffer_size_ = getelementptr inbounds %"class.rocksdb::CacheWriteBufferAllocator", ptr %this1, i32 0, i32 3
  %0 = load i64, ptr %buffer_size_, align 8
  ret i64 %0
}

; Function Attrs: mustprogress nounwind uwtable
define linkonce_odr void @_ZNK7rocksdb4port7RWMutex10AssertHeldEv(ptr noundef nonnull align 8 dereferenceable(56) %this) #2 comdat align 2 {
entry:
  %this.addr = alloca ptr, align 8
  store ptr %this, ptr %this.addr, align 8
  ret void
}

; Function Attrs: mustprogress uwtable
define noundef zeroext i1 @_ZN7rocksdb18WriteableCacheFile10ReadBufferERKNS_19LogicalBlockAddressEPc(ptr noundef nonnull align 8 dereferenceable(273) %this, ptr noundef nonnull align 4 dereferenceable(12) %lba, ptr noundef %data) #0 align 2 {
entry:
  %retval = alloca i1, align 1
  %this.addr = alloca ptr, align 8
  %lba.addr = alloca ptr, align 8
  %data.addr = alloca ptr, align 8
  %tmp = alloca ptr, align 8
  %pending_nbytes = alloca i64, align 8
  %start_idx = alloca i64, align 8
  %start_off = alloca i64, align 8
  %i = alloca i64, align 8
  %buf = alloca ptr, align 8
  %nbytes = alloca i64, align 8
  store ptr %this, ptr %this.addr, align 8
  store ptr %lba, ptr %lba.addr, align 8
  store ptr %data, ptr %data.addr, align 8
  %this1 = load ptr, ptr %this.addr, align 8
  %rwlock_ = getelementptr inbounds %"class.rocksdb::BlockCacheFile", ptr %this1, i32 0, i32 1
  call void @_ZNK7rocksdb4port7RWMutex10AssertHeldEv(ptr noundef nonnull align 8 dereferenceable(56) %rwlock_)
  %0 = load ptr, ptr %data.addr, align 8
  store ptr %0, ptr %tmp, align 8
  %1 = load ptr, ptr %lba.addr, align 8
  %size_ = getelementptr inbounds %"struct.rocksdb::LogicalBlockAddress", ptr %1, i32 0, i32 2
  %2 = load i32, ptr %size_, align 4
  %conv = zext i32 %2 to i64
  store i64 %conv, ptr %pending_nbytes, align 8
  %3 = load ptr, ptr %lba.addr, align 8
  %off_ = getelementptr inbounds %"struct.rocksdb::LogicalBlockAddress", ptr %3, i32 0, i32 1
  %4 = load i32, ptr %off_, align 4
  %conv2 = zext i32 %4 to i64
  %alloc_ = getelementptr inbounds %"class.rocksdb::WriteableCacheFile", ptr %this1, i32 0, i32 1
  %5 = load ptr, ptr %alloc_, align 8
  %call = call noundef i64 @_ZNK7rocksdb25CacheWriteBufferAllocator10BufferSizeEv(ptr noundef nonnull align 8 dereferenceable(136) %5)
  %div = udiv i64 %conv2, %call
  store i64 %div, ptr %start_idx, align 8
  %6 = load ptr, ptr %lba.addr, align 8
  %off_3 = getelementptr inbounds %"struct.rocksdb::LogicalBlockAddress", ptr %6, i32 0, i32 1
  %7 = load i32, ptr %off_3, align 4
  %conv4 = zext i32 %7 to i64
  %alloc_5 = getelementptr inbounds %"class.rocksdb::WriteableCacheFile", ptr %this1, i32 0, i32 1
  %8 = load ptr, ptr %alloc_5, align 8
  %call6 = call noundef i64 @_ZNK7rocksdb25CacheWriteBufferAllocator10BufferSizeEv(ptr noundef nonnull align 8 dereferenceable(136) %8)
  %rem = urem i64 %conv4, %call6
  store i64 %rem, ptr %start_off, align 8
  %9 = load i64, ptr %start_idx, align 8
  store i64 %9, ptr %i, align 8
  br label %for.cond

for.cond:                                         ; preds = %for.inc, %entry
  %10 = load i64, ptr %pending_nbytes, align 8
  %tobool = icmp ne i64 %10, 0
  br i1 %tobool, label %land.rhs, label %land.end

land.rhs:                                         ; preds = %for.cond
  %11 = load i64, ptr %i, align 8
  %bufs_ = getelementptr inbounds %"class.rocksdb::WriteableCacheFile", ptr %this1, i32 0, i32 4
  %call7 = call noundef i64 @_ZNKSt6vectorIPN7rocksdb16CacheWriteBufferESaIS2_EE4sizeEv(ptr noundef nonnull align 8 dereferenceable(24) %bufs_) #12
  %cmp = icmp ult i64 %11, %call7
  br label %land.end

land.end:                                         ; preds = %land.rhs, %for.cond
  %12 = phi i1 [ false, %for.cond ], [ %cmp, %land.rhs ]
  br i1 %12, label %for.body, label %for.end

for.body:                                         ; preds = %land.end
  %bufs_8 = getelementptr inbounds %"class.rocksdb::WriteableCacheFile", ptr %this1, i32 0, i32 4
  %13 = load i64, ptr %i, align 8
  %call9 = call noundef nonnull align 8 dereferenceable(8) ptr @_ZNSt6vectorIPN7rocksdb16CacheWriteBufferESaIS2_EEixEm(ptr noundef nonnull align 8 dereferenceable(24) %bufs_8, i64 noundef %13) #12
  %14 = load ptr, ptr %call9, align 8
  store ptr %14, ptr %buf, align 8
  %15 = load i64, ptr %pending_nbytes, align 8
  %16 = load ptr, ptr %buf, align 8
  %call10 = call noundef i64 @_ZNK7rocksdb16CacheWriteBuffer4UsedEv(ptr noundef nonnull align 8 dereferenceable(32) %16)
  %17 = load i64, ptr %start_off, align 8
  %sub = sub i64 %call10, %17
  %cmp11 = icmp ugt i64 %15, %sub
  br i1 %cmp11, label %cond.true, label %cond.false

cond.true:                                        ; preds = %for.body
  %18 = load ptr, ptr %buf, align 8
  %call12 = call noundef i64 @_ZNK7rocksdb16CacheWriteBuffer4UsedEv(ptr noundef nonnull align 8 dereferenceable(32) %18)
  %19 = load i64, ptr %start_off, align 8
  %sub13 = sub i64 %call12, %19
  br label %cond.end

cond.false:                                       ; preds = %for.body
  %20 = load i64, ptr %pending_nbytes, align 8
  br label %cond.end

cond.end:                                         ; preds = %cond.false, %cond.true
  %cond = phi i64 [ %sub13, %cond.true ], [ %20, %cond.false ]
  store i64 %cond, ptr %nbytes, align 8
  %21 = load ptr, ptr %tmp, align 8
  %22 = load ptr, ptr %buf, align 8
  %call14 = call noundef ptr @_ZNK7rocksdb16CacheWriteBuffer4DataEv(ptr noundef nonnull align 8 dereferenceable(32) %22)
  %23 = load i64, ptr %start_off, align 8
  %add.ptr = getelementptr inbounds i8, ptr %call14, i64 %23
  %24 = load i64, ptr %nbytes, align 8
  call void @llvm.memcpy.p0.p0.i64(ptr align 1 %21, ptr align 1 %add.ptr, i64 %24, i1 false)
  %25 = load i64, ptr %nbytes, align 8
  %26 = load i64, ptr %pending_nbytes, align 8
  %sub15 = sub i64 %26, %25
  store i64 %sub15, ptr %pending_nbytes, align 8
  store i64 0, ptr %start_off, align 8
  %27 = load i64, ptr %nbytes, align 8
  %28 = load ptr, ptr %tmp, align 8
  %add.ptr16 = getelementptr inbounds i8, ptr %28, i64 %27
  store ptr %add.ptr16, ptr %tmp, align 8
  br label %for.inc

for.inc:                                          ; preds = %cond.end
  %29 = load i64, ptr %i, align 8
  %inc = add i64 %29, 1
  store i64 %inc, ptr %i, align 8
  br label %for.cond, !llvm.loop !10

for.end:                                          ; preds = %land.end
  %30 = load i64, ptr %pending_nbytes, align 8
  %tobool17 = icmp ne i64 %30, 0
  br i1 %tobool17, label %if.then, label %if.end

if.then:                                          ; preds = %for.end
  store i1 false, ptr %retval, align 1
  br label %return

if.end:                                           ; preds = %for.end
  store i1 true, ptr %retval, align 1
  br label %return

return:                                           ; preds = %if.end, %if.then
  %31 = load i1, ptr %retval, align 1
  ret i1 %31
}