; Function Attrs: mustprogress nofree norecurse nosync nounwind memory(readwrite, inaccessiblemem: none) uwtable
define noundef zeroext i1 @_ZN7rocksdb18WriteableCacheFile10ReadBufferERKNS_19LogicalBlockAddressEPc(ptr nocapture noundef nonnull readonly align 8 dereferenceable(273) %this, ptr nocapture noundef nonnull readonly align 4 dereferenceable(12) %lba, ptr nocapture noundef writeonly %data) local_unnamed_addr #5 align 2 {
entry:
  %size_ = getelementptr inbounds i8, ptr %lba, i64 8
  %0 = load i32, ptr %size_, align 4
  %bufs_ = getelementptr inbounds i8, ptr %this, i64 208
  %_M_finish.i = getelementptr inbounds i8, ptr %this, i64 216
  %tobool.not18 = icmp eq i32 %0, 0
  br i1 %tobool.not18, label %return, label %land.rhs.preheader

land.rhs.preheader:                               ; preds = %entry
  %off_ = getelementptr inbounds i8, ptr %lba, i64 4
  %1 = load i32, ptr %off_, align 4
  %conv2 = zext i32 %1 to i64
  %alloc_ = getelementptr inbounds i8, ptr %this, i64 184
  %2 = load ptr, ptr %alloc_, align 8
  %buffer_size_.i = getelementptr inbounds i8, ptr %2, i64 104
  %3 = load i64, ptr %buffer_size_.i, align 8
  %rem = urem i64 %conv2, %3
  %div = udiv i64 %conv2, %3
  %conv = zext i32 %0 to i64
  br label %land.rhs

land.rhs:                                         ; preds = %land.rhs.preheader, %for.body
  %tmp.022 = phi ptr [ %add.ptr16, %for.body ], [ %data, %land.rhs.preheader ]
  %i.021 = phi i64 [ %inc, %for.body ], [ %div, %land.rhs.preheader ]
  %start_off.020 = phi i64 [ 0, %for.body ], [ %rem, %land.rhs.preheader ]
  %pending_nbytes.019 = phi i64 [ %sub15, %for.body ], [ %conv, %land.rhs.preheader ]
  %4 = load ptr, ptr %_M_finish.i, align 8
  %5 = load ptr, ptr %bufs_, align 8
  %sub.ptr.lhs.cast.i = ptrtoint ptr %4 to i64
  %sub.ptr.rhs.cast.i = ptrtoint ptr %5 to i64
  %sub.ptr.sub.i = sub i64 %sub.ptr.lhs.cast.i, %sub.ptr.rhs.cast.i
  %sub.ptr.div.i = ashr exact i64 %sub.ptr.sub.i, 3
  %cmp = icmp ult i64 %i.021, %sub.ptr.div.i
  br i1 %cmp, label %for.body, label %return

for.body:                                         ; preds = %land.rhs
  %add.ptr.i = getelementptr inbounds ptr, ptr %5, i64 %i.021
  %6 = load ptr, ptr %add.ptr.i, align 8
  %pos_.i = getelementptr inbounds i8, ptr %6, i64 24
  %7 = load i64, ptr %pos_.i, align 8
  %sub = sub i64 %7, %start_off.020
  %spec.select = tail call i64 @llvm.umin.i64(i64 %pending_nbytes.019, i64 %sub)
  %buf_.i = getelementptr inbounds i8, ptr %6, i64 8
  %8 = load ptr, ptr %buf_.i, align 8
  %add.ptr = getelementptr inbounds i8, ptr %8, i64 %start_off.020
  tail call void @llvm.memcpy.p0.p0.i64(ptr align 1 %tmp.022, ptr align 1 %add.ptr, i64 %spec.select, i1 false)
  %sub15 = sub i64 %pending_nbytes.019, %spec.select
  %add.ptr16 = getelementptr inbounds i8, ptr %tmp.022, i64 %spec.select
  %inc = add nuw i64 %i.021, 1
  %tobool.not = icmp eq i64 %sub15, 0
  br i1 %tobool.not, label %return, label %land.rhs, !llvm.loop !19

return:                                           ; preds = %for.body, %land.rhs, %entry
  %tobool.not.lcssa = phi i1 [ true, %entry ], [ %cmp, %land.rhs ], [ %cmp, %for.body ]
  ret i1 %tobool.not.lcssa
}